; Function Attrs: mustprogress nounwind uwtable
define internal fastcc void @"_ZN4llvm15SmallVectorImplINS_11RISCVMatInt4InstEE12emplace_backIJNS_5RISCV3$_0EiEEERS2_DpOT_"(ptr noundef nonnull align 8 dereferenceable(16) %0, ptr nocapture noundef nonnull readonly align 4 dereferenceable(4) %1, ptr nocapture noundef nonnull readonly align 4 dereferenceable(4) %2) unnamed_addr #0 align 2 {
  %4 = tail call noundef i64 @_ZNK4llvm15SmallVectorBaseIjE4sizeEv(ptr noundef nonnull align 8 dereferenceable(16) %0) #11
  %5 = tail call noundef i64 @_ZNK4llvm15SmallVectorBaseIjE8capacityEv(ptr noundef nonnull align 8 dereferenceable(16) %0) #11
  %.not = icmp ult i64 %4, %5
  br i1 %.not, label %15, label %6

6:                                                ; preds = %3
  %.val = load i32, ptr %1, align 4
  %.val6 = load i32, ptr %2, align 4
  %7 = tail call noundef i64 @_ZNK4llvm15SmallVectorBaseIjE4sizeEv(ptr noundef nonnull align 8 dereferenceable(16) %0) #11
  %8 = add i64 %7, 1
  %9 = tail call noundef i64 @_ZNK4llvm15SmallVectorBaseIjE8capacityEv(ptr noundef nonnull align 8 dereferenceable(16) %0) #11
  %.not.i.i.i.i = icmp ugt i64 %8, %9
  br i1 %.not.i.i.i.i, label %10, label %"_ZN4llvm23SmallVectorTemplateBaseINS_11RISCVMatInt4InstELb1EE18growAndEmplaceBackIJNS_5RISCV3$_0EiEEERS2_DpOT_.exit"

10:                                               ; preds = %6
  %11 = getelementptr inbounds i8, ptr %0, i64 16
  tail call void @_ZN4llvm15SmallVectorBaseIjE8grow_podEPvmm(ptr noundef nonnull align 8 dereferenceable(16) %0, ptr noundef nonnull %11, i64 noundef %8, i64 noundef 8) #11
  br label %"_ZN4llvm23SmallVectorTemplateBaseINS_11RISCVMatInt4InstELb1EE18growAndEmplaceBackIJNS_5RISCV3$_0EiEEERS2_DpOT_.exit"

"_ZN4llvm23SmallVectorTemplateBaseINS_11RISCVMatInt4InstELb1EE18growAndEmplaceBackIJNS_5RISCV3$_0EiEEERS2_DpOT_.exit": ; preds = %6, %10
  %.sroa.2.0.insert.ext.i = zext i32 %.val6 to i64
  %.sroa.2.0.insert.shift.i = shl nuw i64 %.sroa.2.0.insert.ext.i, 32
  %.sroa.0.0.insert.ext.i = zext i32 %.val to i64
  %.sroa.0.0.insert.insert.i = or disjoint i64 %.sroa.2.0.insert.shift.i, %.sroa.0.0.insert.ext.i
  %12 = load ptr, ptr %0, align 8
  %13 = tail call noundef i64 @_ZNK4llvm15SmallVectorBaseIjE4sizeEv(ptr noundef nonnull align 8 dereferenceable(16) %0) #11
  %14 = getelementptr inbounds %"class.llvm::RISCVMatInt::Inst", ptr %12, i64 %13
  store i64 %.sroa.0.0.insert.insert.i, ptr %14, align 1
  br label %22

15:                                               ; preds = %3
  %16 = load ptr, ptr %0, align 8
  %17 = tail call noundef i64 @_ZNK4llvm15SmallVectorBaseIjE4sizeEv(ptr noundef nonnull align 8 dereferenceable(16) %0) #11
  %18 = getelementptr inbounds %"class.llvm::RISCVMatInt::Inst", ptr %16, i64 %17
  %19 = load i32, ptr %1, align 4
  %20 = load i32, ptr %2, align 4
  store i32 %19, ptr %18, align 4
  %21 = getelementptr inbounds nuw i8, ptr %18, i64 4
  store i32 %20, ptr %21, align 4
  br label %22

22:                                               ; preds = %15, %"_ZN4llvm23SmallVectorTemplateBaseINS_11RISCVMatInt4InstELb1EE18growAndEmplaceBackIJNS_5RISCV3$_0EiEEERS2_DpOT_.exit"
  %23 = tail call noundef i64 @_ZNK4llvm15SmallVectorBaseIjE4sizeEv(ptr noundef nonnull align 8 dereferenceable(16) %0) #11
  %24 = add i64 %23, 1
  tail call void @_ZN4llvm15SmallVectorBaseIjE8set_sizeEm(ptr noundef nonnull align 8 dereferenceable(16) %0, i64 noundef %24) #11
  %25 = tail call noundef i64 @_ZNK4llvm15SmallVectorBaseIjE4sizeEv(ptr noundef nonnull align 8 dereferenceable(16) %0) #11
  ret void
}